target datalayout = "e-m:e-p270:32:32-p271:32:32-p272:64:64-i64:64-i128:128-f80:128-n8:16:32:64-S128"
target triple = "x86_64-pc-linux-gnu"

@.str.9 = private unnamed_addr constant [25 x i8] c"../openssl/test/dhtest.c\00", align 1
@.str.31 = private unnamed_addr constant [2 x i8] c"p\00", align 1
@.str.33 = private unnamed_addr constant [2 x i8] c"q\00", align 1
@.str.35 = private unnamed_addr constant [2 x i8] c"g\00", align 1
@.str.119 = private unnamed_addr constant [4 x i8] c"dh1\00", align 1
@.str.120 = private unnamed_addr constant [4 x i8] c"dh2\00", align 1
@.str.121 = private unnamed_addr constant [17 x i8] c"pcpy = BN_dup(p)\00", align 1
@.str.122 = private unnamed_addr constant [17 x i8] c"gcpy = BN_dup(g)\00", align 1
@.str.123 = private unnamed_addr constant [35 x i8] c"DH_set0_pqg(dh2, pcpy, NULL, gcpy)\00", align 1
@.str.124 = private unnamed_addr constant [15 x i8] c"DH_get0_q(dh2)\00", align 1
@.str.125 = private unnamed_addr constant [16 x i8] c"DH_get_nid(dh2)\00", align 1
@.str.126 = private unnamed_addr constant [14 x i8] c"NID_ffdhe2048\00", align 1
@.str.127 = private unnamed_addr constant [30 x i8] c"gcpy = BN_dup(BN_value_one())\00", align 1
@.str.128 = private unnamed_addr constant [35 x i8] c"DH_set0_pqg(dh2, NULL, NULL, gcpy)\00", align 1
@.str.129 = private unnamed_addr constant [10 x i8] c"NID_undef\00", align 1
@.str.130 = private unnamed_addr constant [17 x i8] c"qcpy = BN_dup(q)\00", align 1
@.str.131 = private unnamed_addr constant [21 x i8] c"BN_add_word(qcpy, 2)\00", align 1
@.str.132 = private unnamed_addr constant [2 x i8] c"1\00", align 1
@.str.133 = private unnamed_addr constant [35 x i8] c"DH_set0_pqg(dh2, pcpy, qcpy, gcpy)\00", align 1

; Function Attrs: nounwind uwtable
define internal i32 @dh_get_nid() #0 {
  %1 = alloca i32, align 4
  %2 = alloca ptr, align 8
  %3 = alloca ptr, align 8
  %4 = alloca ptr, align 8
  %5 = alloca ptr, align 8
  %6 = alloca ptr, align 8
  %7 = alloca ptr, align 8
  %8 = alloca ptr, align 8
  %9 = alloca ptr, align 8
  call void @llvm.lifetime.start.p0(i64 4, ptr %1) #3
  store i32 0, ptr %1, align 4, !tbaa !15
  call void @llvm.lifetime.start.p0(i64 8, ptr %2) #3
  call void @llvm.lifetime.start.p0(i64 8, ptr %3) #3
  call void @llvm.lifetime.start.p0(i64 8, ptr %4) #3
  call void @llvm.lifetime.start.p0(i64 8, ptr %5) #3
  store ptr null, ptr %5, align 8, !tbaa !9
  call void @llvm.lifetime.start.p0(i64 8, ptr %6) #3
  store ptr null, ptr %6, align 8, !tbaa !9
  call void @llvm.lifetime.start.p0(i64 8, ptr %7) #3
  store ptr null, ptr %7, align 8, !tbaa !9
  call void @llvm.lifetime.start.p0(i64 8, ptr %8) #3
  %10 = call ptr @DH_new_by_nid(i32 noundef 1126)
  store ptr %10, ptr %8, align 8, !tbaa !4
  call void @llvm.lifetime.start.p0(i64 8, ptr %9) #3
  %11 = call ptr @DH_new()
  store ptr %11, ptr %9, align 8, !tbaa !4
  %12 = load ptr, ptr %8, align 8, !tbaa !4
  %13 = call i32 @test_ptr(ptr noundef @.str.9, i32 noundef 812, ptr noundef @.str.119, ptr noundef %12)
  %14 = icmp ne i32 %13, 0
  br i1 %14, label %15, label %19

15:                                               ; preds = %0
  %16 = load ptr, ptr %9, align 8, !tbaa !4
  %17 = call i32 @test_ptr(ptr noundef @.str.9, i32 noundef 813, ptr noundef @.str.120, ptr noundef %16)
  %18 = icmp ne i32 %17, 0
  br i1 %18, label %20, label %19

19:                                               ; preds = %15, %0
  br label %125

20:                                               ; preds = %15
  %21 = load ptr, ptr %8, align 8, !tbaa !4
  call void @DH_get0_pqg(ptr noundef %21, ptr noundef %2, ptr noundef %3, ptr noundef %4)
  %22 = load ptr, ptr %2, align 8, !tbaa !9
  %23 = call i32 @test_ptr(ptr noundef @.str.9, i32 noundef 818, ptr noundef @.str.31, ptr noundef %22)
  %24 = icmp ne i32 %23, 0
  br i1 %24, label %25, label %43

25:                                               ; preds = %20
  %26 = load ptr, ptr %3, align 8, !tbaa !9
  %27 = call i32 @test_ptr(ptr noundef @.str.9, i32 noundef 819, ptr noundef @.str.33, ptr noundef %26)
  %28 = icmp ne i32 %27, 0
  br i1 %28, label %29, label %43

29:                                               ; preds = %25
  %30 = load ptr, ptr %4, align 8, !tbaa !9
  %31 = call i32 @test_ptr(ptr noundef @.str.9, i32 noundef 820, ptr noundef @.str.35, ptr noundef %30)
  %32 = icmp ne i32 %31, 0
  br i1 %32, label %33, label %43

33:                                               ; preds = %29
  %34 = load ptr, ptr %2, align 8, !tbaa !9
  %35 = call ptr @BN_dup(ptr noundef %34)
  store ptr %35, ptr %5, align 8, !tbaa !9
  %36 = call i32 @test_ptr(ptr noundef @.str.9, i32 noundef 821, ptr noundef @.str.121, ptr noundef %35)
  %37 = icmp ne i32 %36, 0
  br i1 %37, label %38, label %43

38:                                               ; preds = %33
  %39 = load ptr, ptr %4, align 8, !tbaa !9
  %40 = call ptr @BN_dup(ptr noundef %39)
  store ptr %40, ptr %6, align 8, !tbaa !9
  %41 = call i32 @test_ptr(ptr noundef @.str.9, i32 noundef 822, ptr noundef @.str.122, ptr noundef %40)
  %42 = icmp ne i32 %41, 0
  br i1 %42, label %44, label %43

43:                                               ; preds = %38, %33, %29, %25, %20
  br label %125

44:                                               ; preds = %38
  %45 = load ptr, ptr %9, align 8, !tbaa !4
  %46 = load ptr, ptr %5, align 8, !tbaa !9
  %47 = load ptr, ptr %6, align 8, !tbaa !9
  %48 = call i32 @DH_set0_pqg(ptr noundef %45, ptr noundef %46, ptr noundef null, ptr noundef %47)
  %49 = icmp ne i32 %48, 0
  %50 = zext i1 %49 to i32
  %51 = call i32 @test_true(ptr noundef @.str.9, i32 noundef 825, ptr noundef @.str.123, i32 noundef %50)
  %52 = icmp ne i32 %51, 0
  br i1 %52, label %54, label %53

53:                                               ; preds = %44
  br label %125

54:                                               ; preds = %44
  store ptr null, ptr %6, align 8, !tbaa !9
  store ptr null, ptr %5, align 8, !tbaa !9
  %55 = load ptr, ptr %9, align 8, !tbaa !4
  %56 = call ptr @DH_get0_q(ptr noundef %55)
  %57 = call i32 @test_ptr(ptr noundef @.str.9, i32 noundef 829, ptr noundef @.str.124, ptr noundef %56)
  %58 = icmp ne i32 %57, 0
  br i1 %58, label %60, label %59

59:                                               ; preds = %54
  br label %125

60:                                               ; preds = %54
  %61 = load ptr, ptr %9, align 8, !tbaa !4
  %62 = call i32 @DH_get_nid(ptr noundef %61)
  %63 = call i32 @test_int_eq(ptr noundef @.str.9, i32 noundef 833, ptr noundef @.str.125, ptr noundef @.str.126, i32 noundef %62, i32 noundef 1126)
  %64 = icmp ne i32 %63, 0
  br i1 %64, label %66, label %65

65:                                               ; preds = %60
  br label %125

66:                                               ; preds = %60
  %67 = call ptr @BN_value_one()
  %68 = call ptr @BN_dup(ptr noundef %67)
  store ptr %68, ptr %6, align 8, !tbaa !9
  %69 = call i32 @test_ptr(ptr noundef @.str.9, i32 noundef 837, ptr noundef @.str.127, ptr noundef %68)
  %70 = icmp ne i32 %69, 0
  br i1 %70, label %72, label %71

71:                                               ; preds = %66
  br label %125

72:                                               ; preds = %66
  %73 = load ptr, ptr %9, align 8, !tbaa !4
  %74 = load ptr, ptr %6, align 8, !tbaa !9
  %75 = call i32 @DH_set0_pqg(ptr noundef %73, ptr noundef null, ptr noundef null, ptr noundef %74)
  %76 = icmp ne i32 %75, 0
  %77 = zext i1 %76 to i32
  %78 = call i32 @test_true(ptr noundef @.str.9, i32 noundef 839, ptr noundef @.str.128, i32 noundef %77)
  %79 = icmp ne i32 %78, 0
  br i1 %79, label %81, label %80

80:                                               ; preds = %72
  br label %125

81:                                               ; preds = %72
  store ptr null, ptr %6, align 8, !tbaa !9
  %82 = load ptr, ptr %9, align 8, !tbaa !4
  %83 = call i32 @DH_get_nid(ptr noundef %82)
  %84 = call i32 @test_int_eq(ptr noundef @.str.9, i32 noundef 842, ptr noundef @.str.125, ptr noundef @.str.129, i32 noundef %83, i32 noundef 0)
  %85 = icmp ne i32 %84, 0
  br i1 %85, label %87, label %86

86:                                               ; preds = %81
  br label %125

87:                                               ; preds = %81
  %88 = load ptr, ptr %2, align 8, !tbaa !9
  %89 = call ptr @BN_dup(ptr noundef %88)
  store ptr %89, ptr %5, align 8, !tbaa !9
  %90 = call i32 @test_ptr(ptr noundef @.str.9, i32 noundef 846, ptr noundef @.str.121, ptr noundef %89)
  %91 = icmp ne i32 %90, 0
  br i1 %91, label %92, label %117

92:                                               ; preds = %87
  %93 = load ptr, ptr %3, align 8, !tbaa !9
  %94 = call ptr @BN_dup(ptr noundef %93)
  store ptr %94, ptr %7, align 8, !tbaa !9
  %95 = call i32 @test_ptr(ptr noundef @.str.9, i32 noundef 847, ptr noundef @.str.130, ptr noundef %94)
  %96 = icmp ne i32 %95, 0
  br i1 %96, label %97, label %117

97:                                               ; preds = %92
  %98 = load ptr, ptr %4, align 8, !tbaa !9
  %99 = call ptr @BN_dup(ptr noundef %98)
  store ptr %99, ptr %6, align 8, !tbaa !9
  %100 = call i32 @test_ptr(ptr noundef @.str.9, i32 noundef 848, ptr noundef @.str.122, ptr noundef %99)
  %101 = icmp ne i32 %100, 0
  br i1 %101, label %102, label %117

102:                                              ; preds = %97
  %103 = load ptr, ptr %7, align 8, !tbaa !9
  %104 = call i32 @BN_add_word(ptr noundef %103, i64 noundef 2)
  %105 = call i32 @test_int_eq(ptr noundef @.str.9, i32 noundef 849, ptr noundef @.str.131, ptr noundef @.str.132, i32 noundef %104, i32 noundef 1)
  %106 = icmp ne i32 %105, 0
  br i1 %106, label %107, label %117

107:                                              ; preds = %102
  %108 = load ptr, ptr %9, align 8, !tbaa !4
  %109 = load ptr, ptr %5, align 8, !tbaa !9
  %110 = load ptr, ptr %7, align 8, !tbaa !9
  %111 = load ptr, ptr %6, align 8, !tbaa !9
  %112 = call i32 @DH_set0_pqg(ptr noundef %108, ptr noundef %109, ptr noundef %110, ptr noundef %111)
  %113 = icmp ne i32 %112, 0
  %114 = zext i1 %113 to i32
  %115 = call i32 @test_true(ptr noundef @.str.9, i32 noundef 850, ptr noundef @.str.133, i32 noundef %114)
  %116 = icmp ne i32 %115, 0
  br i1 %116, label %118, label %117

117:                                              ; preds = %107, %102, %97, %92, %87
  br label %125

118:                                              ; preds = %107
  store ptr null, ptr %6, align 8, !tbaa !9
  store ptr null, ptr %7, align 8, !tbaa !9
  store ptr null, ptr %5, align 8, !tbaa !9
  %119 = load ptr, ptr %9, align 8, !tbaa !4
  %120 = call i32 @DH_get_nid(ptr noundef %119)
  %121 = call i32 @test_int_eq(ptr noundef @.str.9, i32 noundef 853, ptr noundef @.str.125, ptr noundef @.str.129, i32 noundef %120, i32 noundef 0)
  %122 = icmp ne i32 %121, 0
  br i1 %122, label %124, label %123

123:                                              ; preds = %118
  br label %125

124:                                              ; preds = %118
  store i32 1, ptr %1, align 4, !tbaa !15
  br label %125

125:                                              ; preds = %124, %123, %117, %86, %80, %71, %65, %59, %53, %43, %19
  %126 = load ptr, ptr %5, align 8, !tbaa !9
  call void @BN_free(ptr noundef %126)
  %127 = load ptr, ptr %7, align 8, !tbaa !9
  call void @BN_free(ptr noundef %127)
  %128 = load ptr, ptr %6, align 8, !tbaa !9
  call void @BN_free(ptr noundef %128)
  %129 = load ptr, ptr %9, align 8, !tbaa !4
  call void @DH_free(ptr noundef %129)
  %130 = load ptr, ptr %8, align 8, !tbaa !4
  call void @DH_free(ptr noundef %130)
  %131 = load i32, ptr %1, align 4, !tbaa !15
  call void @llvm.lifetime.end.p0(i64 8, ptr %9) #3
  call void @llvm.lifetime.end.p0(i64 8, ptr %8) #3
  call void @llvm.lifetime.end.p0(i64 8, ptr %7) #3
  call void @llvm.lifetime.end.p0(i64 8, ptr %6) #3
  call void @llvm.lifetime.end.p0(i64 8, ptr %5) #3
  call void @llvm.lifetime.end.p0(i64 8, ptr %4) #3
  call void @llvm.lifetime.end.p0(i64 8, ptr %3) #3
  call void @llvm.lifetime.end.p0(i64 8, ptr %2) #3
  call void @llvm.lifetime.end.p0(i64 4, ptr %1) #3
  ret i32 %131
}