; Function Attrs: nounwind uwtable
define internal range(i32 0, 2) i32 @dh_get_nid() #0 {
  %1 = alloca ptr, align 8
  %2 = alloca ptr, align 8
  %3 = alloca ptr, align 8
  call void @llvm.lifetime.start.p0(i64 8, ptr nonnull %1) #4
  call void @llvm.lifetime.start.p0(i64 8, ptr nonnull %2) #4
  call void @llvm.lifetime.start.p0(i64 8, ptr nonnull %3) #4
  %4 = tail call ptr @DH_new_by_nid(i32 noundef 1126) #4
  %5 = tail call ptr @DH_new() #4
  %6 = tail call i32 @test_ptr(ptr noundef nonnull @.str.9, i32 noundef 812, ptr noundef nonnull @.str.119, ptr noundef %4) #4
  %.not = icmp eq i32 %6, 0
  br i1 %.not, label %72, label %7

7:                                                ; preds = %0
  %8 = tail call i32 @test_ptr(ptr noundef nonnull @.str.9, i32 noundef 813, ptr noundef nonnull @.str.120, ptr noundef %5) #4
  %.not25 = icmp eq i32 %8, 0
  br i1 %.not25, label %72, label %9

9:                                                ; preds = %7
  call void @DH_get0_pqg(ptr noundef %4, ptr noundef nonnull %1, ptr noundef nonnull %2, ptr noundef nonnull %3) #4
  %10 = load ptr, ptr %1, align 8, !tbaa !4
  %11 = call i32 @test_ptr(ptr noundef nonnull @.str.9, i32 noundef 818, ptr noundef nonnull @.str.31, ptr noundef %10) #4
  %.not26 = icmp eq i32 %11, 0
  br i1 %.not26, label %72, label %12

12:                                               ; preds = %9
  %13 = load ptr, ptr %2, align 8, !tbaa !4
  %14 = call i32 @test_ptr(ptr noundef nonnull @.str.9, i32 noundef 819, ptr noundef nonnull @.str.33, ptr noundef %13) #4
  %.not27 = icmp eq i32 %14, 0
  br i1 %.not27, label %72, label %15

15:                                               ; preds = %12
  %16 = load ptr, ptr %3, align 8, !tbaa !4
  %17 = call i32 @test_ptr(ptr noundef nonnull @.str.9, i32 noundef 820, ptr noundef nonnull @.str.35, ptr noundef %16) #4
  %.not28 = icmp eq i32 %17, 0
  br i1 %.not28, label %72, label %18

18:                                               ; preds = %15
  %19 = load ptr, ptr %1, align 8, !tbaa !4
  %20 = call ptr @BN_dup(ptr noundef %19) #4
  %21 = call i32 @test_ptr(ptr noundef nonnull @.str.9, i32 noundef 821, ptr noundef nonnull @.str.121, ptr noundef %20) #4
  %.not29 = icmp eq i32 %21, 0
  br i1 %.not29, label %72, label %22

22:                                               ; preds = %18
  %23 = load ptr, ptr %3, align 8, !tbaa !4
  %24 = call ptr @BN_dup(ptr noundef %23) #4
  %25 = call i32 @test_ptr(ptr noundef nonnull @.str.9, i32 noundef 822, ptr noundef nonnull @.str.122, ptr noundef %24) #4
  %.not30 = icmp eq i32 %25, 0
  br i1 %.not30, label %72, label %26

26:                                               ; preds = %22
  %27 = call i32 @DH_set0_pqg(ptr noundef %5, ptr noundef %20, ptr noundef null, ptr noundef %24) #4
  %28 = icmp ne i32 %27, 0
  %29 = zext i1 %28 to i32
  %30 = call i32 @test_true(ptr noundef nonnull @.str.9, i32 noundef 825, ptr noundef nonnull @.str.123, i32 noundef %29) #4
  %.not31 = icmp eq i32 %30, 0
  br i1 %.not31, label %72, label %31

31:                                               ; preds = %26
  %32 = call ptr @DH_get0_q(ptr noundef %5) #4
  %33 = call i32 @test_ptr(ptr noundef nonnull @.str.9, i32 noundef 829, ptr noundef nonnull @.str.124, ptr noundef %32) #4
  %.not32 = icmp eq i32 %33, 0
  br i1 %.not32, label %72, label %34

34:                                               ; preds = %31
  %35 = call i32 @DH_get_nid(ptr noundef %5) #4
  %36 = call i32 @test_int_eq(ptr noundef nonnull @.str.9, i32 noundef 833, ptr noundef nonnull @.str.125, ptr noundef nonnull @.str.126, i32 noundef %35, i32 noundef 1126) #4
  %.not33 = icmp eq i32 %36, 0
  br i1 %.not33, label %72, label %37

37:                                               ; preds = %34
  %38 = call ptr @BN_value_one() #4
  %39 = call ptr @BN_dup(ptr noundef %38) #4
  %40 = call i32 @test_ptr(ptr noundef nonnull @.str.9, i32 noundef 837, ptr noundef nonnull @.str.127, ptr noundef %39) #4
  %.not34 = icmp eq i32 %40, 0
  br i1 %.not34, label %72, label %41

41:                                               ; preds = %37
  %42 = call i32 @DH_set0_pqg(ptr noundef %5, ptr noundef null, ptr noundef null, ptr noundef %39) #4
  %43 = icmp ne i32 %42, 0
  %44 = zext i1 %43 to i32
  %45 = call i32 @test_true(ptr noundef nonnull @.str.9, i32 noundef 839, ptr noundef nonnull @.str.128, i32 noundef %44) #4
  %.not35 = icmp eq i32 %45, 0
  br i1 %.not35, label %72, label %46

46:                                               ; preds = %41
  %47 = call i32 @DH_get_nid(ptr noundef %5) #4
  %48 = call i32 @test_int_eq(ptr noundef nonnull @.str.9, i32 noundef 842, ptr noundef nonnull @.str.125, ptr noundef nonnull @.str.129, i32 noundef %47, i32 noundef 0) #4
  %.not36 = icmp eq i32 %48, 0
  br i1 %.not36, label %72, label %49

49:                                               ; preds = %46
  %50 = load ptr, ptr %1, align 8, !tbaa !4
  %51 = call ptr @BN_dup(ptr noundef %50) #4
  %52 = call i32 @test_ptr(ptr noundef nonnull @.str.9, i32 noundef 846, ptr noundef nonnull @.str.121, ptr noundef %51) #4
  %.not37 = icmp eq i32 %52, 0
  br i1 %.not37, label %72, label %53

53:                                               ; preds = %49
  %54 = load ptr, ptr %2, align 8, !tbaa !4
  %55 = call ptr @BN_dup(ptr noundef %54) #4
  %56 = call i32 @test_ptr(ptr noundef nonnull @.str.9, i32 noundef 847, ptr noundef nonnull @.str.130, ptr noundef %55) #4
  %.not38 = icmp eq i32 %56, 0
  br i1 %.not38, label %72, label %57

57:                                               ; preds = %53
  %58 = load ptr, ptr %3, align 8, !tbaa !4
  %59 = call ptr @BN_dup(ptr noundef %58) #4
  %60 = call i32 @test_ptr(ptr noundef nonnull @.str.9, i32 noundef 848, ptr noundef nonnull @.str.122, ptr noundef %59) #4
  %.not39 = icmp eq i32 %60, 0
  br i1 %.not39, label %72, label %61

61:                                               ; preds = %57
  %62 = call i32 @BN_add_word(ptr noundef %55, i64 noundef 2) #4
  %63 = call i32 @test_int_eq(ptr noundef nonnull @.str.9, i32 noundef 849, ptr noundef nonnull @.str.131, ptr noundef nonnull @.str.132, i32 noundef %62, i32 noundef 1) #4
  %.not40 = icmp eq i32 %63, 0
  br i1 %.not40, label %72, label %64

64:                                               ; preds = %61
  %65 = call i32 @DH_set0_pqg(ptr noundef %5, ptr noundef %51, ptr noundef %55, ptr noundef %59) #4
  %66 = icmp ne i32 %65, 0
  %67 = zext i1 %66 to i32
  %68 = call i32 @test_true(ptr noundef nonnull @.str.9, i32 noundef 850, ptr noundef nonnull @.str.133, i32 noundef %67) #4
  %.not41 = icmp eq i32 %68, 0
  br i1 %.not41, label %72, label %69

69:                                               ; preds = %64
  %70 = call i32 @DH_get_nid(ptr noundef %5) #4
  %71 = call i32 @test_int_eq(ptr noundef nonnull @.str.9, i32 noundef 853, ptr noundef nonnull @.str.125, ptr noundef nonnull @.str.129, i32 noundef %70, i32 noundef 0) #4
  %.not42 = icmp ne i32 %71, 0
  %spec.select = zext i1 %.not42 to i32
  br label %72

72:                                               ; preds = %69, %49, %53, %57, %61, %64, %46, %41, %37, %34, %31, %26, %9, %12, %15, %18, %22, %0, %7
  %.024 = phi ptr [ %59, %64 ], [ %59, %61 ], [ %59, %57 ], [ null, %53 ], [ null, %49 ], [ null, %46 ], [ %39, %41 ], [ %39, %37 ], [ null, %34 ], [ null, %31 ], [ %24, %26 ], [ %24, %22 ], [ null, %18 ], [ null, %15 ], [ null, %12 ], [ null, %9 ], [ null, %7 ], [ null, %0 ], [ null, %69 ]
  %.023 = phi ptr [ %55, %64 ], [ %55, %61 ], [ %55, %57 ], [ %55, %53 ], [ null, %49 ], [ null, %46 ], [ null, %41 ], [ null, %37 ], [ null, %34 ], [ null, %31 ], [ null, %26 ], [ null, %22 ], [ null, %18 ], [ null, %15 ], [ null, %12 ], [ null, %9 ], [ null, %7 ], [ null, %0 ], [ null, %69 ]
  %.022 = phi ptr [ %51, %64 ], [ %51, %61 ], [ %51, %57 ], [ %51, %53 ], [ %51, %49 ], [ null, %46 ], [ null, %41 ], [ null, %37 ], [ null, %34 ], [ null, %31 ], [ %20, %26 ], [ %20, %22 ], [ %20, %18 ], [ null, %15 ], [ null, %12 ], [ null, %9 ], [ null, %7 ], [ null, %0 ], [ null, %69 ]
  %.0 = phi i32 [ 0, %64 ], [ 0, %61 ], [ 0, %57 ], [ 0, %53 ], [ 0, %49 ], [ 0, %46 ], [ 0, %41 ], [ 0, %37 ], [ 0, %34 ], [ 0, %31 ], [ 0, %26 ], [ 0, %22 ], [ 0, %18 ], [ 0, %15 ], [ 0, %12 ], [ 0, %9 ], [ 0, %7 ], [ 0, %0 ], [ %spec.select, %69 ]
  call void @BN_free(ptr noundef %.022) #4
  call void @BN_free(ptr noundef %.023) #4
  call void @BN_free(ptr noundef %.024) #4
  call void @DH_free(ptr noundef %5) #4
  call void @DH_free(ptr noundef %4) #4
  call void @llvm.lifetime.end.p0(i64 8, ptr nonnull %3) #4
  call void @llvm.lifetime.end.p0(i64 8, ptr nonnull %2) #4
  call void @llvm.lifetime.end.p0(i64 8, ptr nonnull %1) #4
  ret i32 %.0
}